; Function Attrs: nounwind sspstrong uwtable
define dso_local void @helper_cbo_zero(ptr noundef %env, i64 noundef %address) local_unnamed_addr #2 {
entry:
  %cboz_blocksize = getelementptr i8, ptr %env, i64 5294
  %0 = load i16, ptr %cboz_blocksize, align 2
  %call1 = tail call i32 @riscv_cpu_mmu_index(ptr noundef %env, i1 noundef zeroext false) #9
  %1 = tail call ptr @llvm.returnaddress(i32 0)
  %2 = ptrtoint ptr %1 to i64
  %conv = zext i16 %0 to i32
  %not = sub nsw i32 0, %conv
  %conv2 = sext i32 %not to i64
  %and = and i64 %address, %conv2
  %call.i = tail call ptr @probe_access(ptr noundef %env, i64 noundef %and, i32 noundef range(i32 0, 65536) %conv, i32 noundef 1, i32 noundef %call1, i64 noundef %2) #9
  %tobool.not = icmp eq ptr %call.i, null
  br i1 %tobool.not, label %for.cond.preheader, label %if.then

for.cond.preheader:                               ; preds = %entry
  %cmp16.not = icmp eq i16 %0, 0
  br i1 %cmp16.not, label %if.end, label %for.body.preheader

for.body.preheader:                               ; preds = %for.cond.preheader
  %wide.trip.count = zext i16 %0 to i64
  br label %for.body

if.then:                                          ; preds = %entry
  %conv8 = zext i16 %0 to i64
  tail call void @llvm.memset.p0.i64(ptr nonnull align 1 %call.i, i8 0, i64 %conv8, i1 false)
  br label %if.end

for.body:                                         ; preds = %for.body.preheader, %for.body
  %indvars.iv = phi i64 [ 0, %for.body.preheader ], [ %indvars.iv.next, %for.body ]
  %add = add i64 %and, %indvars.iv
  tail call void @cpu_stb_mmuidx_ra(ptr noundef %env, i64 noundef %add, i32 noundef 0, i32 noundef %call1, i64 noundef %2) #9
  %indvars.iv.next = add nuw nsw i64 %indvars.iv, 1
  %exitcond.not = icmp eq i64 %indvars.iv.next, %wide.trip.count
  br i1 %exitcond.not, label %if.end, label %for.body, !llvm.loop !5

if.end:                                           ; preds = %for.body, %for.cond.preheader, %if.then
  ret void
}